target datalayout = "e-m:e-p270:32:32-p271:32:32-p272:64:64-i64:64-i128:128-f80:128-n8:16:32:64-S128"
target triple = "x86_64-pc-linux-gnu"

%"class.__gnu_cxx::__normal_iterator.21" = type { ptr }
%"struct.ade::MemoryAccessor::SavedHandles" = type { %"class.std::unique_ptr", %"class.std::vector.5" }
%"class.std::unique_ptr" = type { %"struct.std::__uniq_ptr_data" }
%"struct.std::__uniq_ptr_data" = type { %"class.std::__uniq_ptr_impl" }
%"class.std::__uniq_ptr_impl" = type { %"class.std::tuple" }
%"class.std::tuple" = type { %"struct.std::_Tuple_impl" }
%"struct.std::_Tuple_impl" = type { %"struct.std::_Tuple_impl.3", %"struct.std::_Head_base.4" }
%"struct.std::_Tuple_impl.3" = type { %"struct.std::_Head_base" }
%"struct.std::_Head_base" = type { %"struct.ade::IMemoryAccessListener::AccessHandleDeleter" }
%"struct.ade::IMemoryAccessListener::AccessHandleDeleter" = type { ptr }
%"struct.std::_Head_base.4" = type { ptr }
%"class.std::vector.5" = type { %"struct.std::_Vector_base.6" }
%"struct.std::_Vector_base.6" = type { %"struct.std::_Vector_base<std::unique_ptr<void, ade::IMemoryAccessListener::AccessHandleDeleter>, std::allocator<std::unique_ptr<void, ade::IMemoryAccessListener::AccessHandleDeleter>>>::_Vector_impl" }
%"struct.std::_Vector_base<std::unique_ptr<void, ade::IMemoryAccessListener::AccessHandleDeleter>, std::allocator<std::unique_ptr<void, ade::IMemoryAccessListener::AccessHandleDeleter>>>::_Vector_impl" = type { %"struct.std::_Vector_base<std::unique_ptr<void, ade::IMemoryAccessListener::AccessHandleDeleter>, std::allocator<std::unique_ptr<void, ade::IMemoryAccessListener::AccessHandleDeleter>>>::_Vector_impl_data" }
%"struct.std::_Vector_base<std::unique_ptr<void, ade::IMemoryAccessListener::AccessHandleDeleter>, std::allocator<std::unique_ptr<void, ade::IMemoryAccessListener::AccessHandleDeleter>>>::_Vector_impl_data" = type { ptr, ptr, ptr }

; Function Attrs: mustprogress nounwind uwtable
define linkonce_odr hidden noundef nonnull align 8 dereferenceable(8) ptr @_ZNSt10_Head_baseILm0EPvLb0EE7_M_headERS1_(ptr noundef nonnull align 8 dereferenceable(8) %0) #0 comdat align 2 {
  %2 = alloca ptr, align 8
  store ptr %0, ptr %2, align 8, !tbaa !158
  %3 = load ptr, ptr %2, align 8, !tbaa !158
  %4 = getelementptr inbounds nuw %"struct.std::_Head_base.4", ptr %3, i32 0, i32 0
  ret ptr %4
}

; Function Attrs: mustprogress nounwind uwtable
define linkonce_odr hidden noundef nonnull align 8 dereferenceable(8) ptr @_ZNSt11_Tuple_implILm0EJPvN3ade21IMemoryAccessListener19AccessHandleDeleterEEE7_M_headERS4_(ptr noundef nonnull align 8 dereferenceable(16) %0) #0 comdat align 2 {
  %2 = alloca ptr, align 8
  store ptr %0, ptr %2, align 8, !tbaa !154
  %3 = load ptr, ptr %2, align 8, !tbaa !154
  %4 = getelementptr inbounds i8, ptr %3, i64 8
  %5 = call noundef nonnull align 8 dereferenceable(8) ptr @_ZNSt10_Head_baseILm0EPvLb0EE7_M_headERS1_(ptr noundef nonnull align 8 dereferenceable(8) %4) #13
  ret ptr %5
}

; Function Attrs: mustprogress nounwind uwtable
define linkonce_odr hidden noundef nonnull align 8 dereferenceable(8) ptr @_ZNSt10_Head_baseILm1EN3ade21IMemoryAccessListener19AccessHandleDeleterELb0EE7_M_headERS3_(ptr noundef nonnull align 8 dereferenceable(8) %0) #0 comdat align 2 {
  %2 = alloca ptr, align 8
  store ptr %0, ptr %2, align 8, !tbaa !162
  %3 = load ptr, ptr %2, align 8, !tbaa !162
  %4 = getelementptr inbounds nuw %"struct.std::_Head_base", ptr %3, i32 0, i32 0
  ret ptr %4
}

; Function Attrs: mustprogress nounwind uwtable
define linkonce_odr hidden noundef nonnull align 8 dereferenceable(8) ptr @_ZSt12__get_helperILm0EPvJN3ade21IMemoryAccessListener19AccessHandleDeleterEEERT0_RSt11_Tuple_implIXT_EJS4_DpT1_EE(ptr noundef nonnull align 8 dereferenceable(16) %0) #0 comdat {
  %2 = alloca ptr, align 8
  store ptr %0, ptr %2, align 8, !tbaa !154
  %3 = load ptr, ptr %2, align 8, !tbaa !154
  %4 = call noundef nonnull align 8 dereferenceable(8) ptr @_ZNSt11_Tuple_implILm0EJPvN3ade21IMemoryAccessListener19AccessHandleDeleterEEE7_M_headERS4_(ptr noundef nonnull align 8 dereferenceable(16) %3) #13
  ret ptr %4
}

; Function Attrs: mustprogress nounwind uwtable
define linkonce_odr hidden noundef nonnull align 8 dereferenceable(8) ptr @_ZNSt11_Tuple_implILm1EJN3ade21IMemoryAccessListener19AccessHandleDeleterEEE7_M_headERS3_(ptr noundef nonnull align 8 dereferenceable(8) %0) #0 comdat align 2 {
  %2 = alloca ptr, align 8
  store ptr %0, ptr %2, align 8, !tbaa !156
  %3 = load ptr, ptr %2, align 8, !tbaa !156
  %4 = call noundef nonnull align 8 dereferenceable(8) ptr @_ZNSt10_Head_baseILm1EN3ade21IMemoryAccessListener19AccessHandleDeleterELb0EE7_M_headERS3_(ptr noundef nonnull align 8 dereferenceable(8) %3) #13
  ret ptr %4
}

; Function Attrs: mustprogress nounwind uwtable
define linkonce_odr hidden noundef nonnull align 8 dereferenceable(8) ptr @_ZSt3getILm0EJPvN3ade21IMemoryAccessListener19AccessHandleDeleterEEERNSt13tuple_elementIXT_ESt5tupleIJDpT0_EEE4typeERS8_(ptr noundef nonnull align 8 dereferenceable(16) %0) #0 comdat {
  %2 = alloca ptr, align 8
  store ptr %0, ptr %2, align 8, !tbaa !152
  %3 = load ptr, ptr %2, align 8, !tbaa !152
  %4 = call noundef nonnull align 8 dereferenceable(8) ptr @_ZSt12__get_helperILm0EPvJN3ade21IMemoryAccessListener19AccessHandleDeleterEEERT0_RSt11_Tuple_implIXT_EJS4_DpT1_EE(ptr noundef nonnull align 8 dereferenceable(16) %3) #13
  ret ptr %4
}

; Function Attrs: mustprogress nounwind uwtable
define linkonce_odr hidden noundef nonnull align 8 dereferenceable(8) ptr @_ZSt12__get_helperILm1EN3ade21IMemoryAccessListener19AccessHandleDeleterEJEERT0_RSt11_Tuple_implIXT_EJS3_DpT1_EE(ptr noundef nonnull align 8 dereferenceable(8) %0) #0 comdat {
  %2 = alloca ptr, align 8
  store ptr %0, ptr %2, align 8, !tbaa !156
  %3 = load ptr, ptr %2, align 8, !tbaa !156
  %4 = call noundef nonnull align 8 dereferenceable(8) ptr @_ZNSt11_Tuple_implILm1EJN3ade21IMemoryAccessListener19AccessHandleDeleterEEE7_M_headERS3_(ptr noundef nonnull align 8 dereferenceable(8) %3) #13
  ret ptr %4
}

; Function Attrs: mustprogress nounwind uwtable
define linkonce_odr hidden noundef nonnull align 8 dereferenceable(8) ptr @_ZNSt15__uniq_ptr_implIvN3ade21IMemoryAccessListener19AccessHandleDeleterEE6_M_ptrEv(ptr noundef nonnull align 8 dereferenceable(16) %0) #0 comdat align 2 {
  %2 = alloca ptr, align 8
  store ptr %0, ptr %2, align 8, !tbaa !150
  %3 = load ptr, ptr %2, align 8
  %4 = getelementptr inbounds nuw %"class.std::__uniq_ptr_impl", ptr %3, i32 0, i32 0
  %5 = call noundef nonnull align 8 dereferenceable(8) ptr @_ZSt3getILm0EJPvN3ade21IMemoryAccessListener19AccessHandleDeleterEEERNSt13tuple_elementIXT_ESt5tupleIJDpT0_EEE4typeERS8_(ptr noundef nonnull align 8 dereferenceable(16) %4) #13
  ret ptr %5
}

; Function Attrs: mustprogress nounwind uwtable
define linkonce_odr hidden noundef nonnull align 8 dereferenceable(8) ptr @_ZSt3getILm1EJPvN3ade21IMemoryAccessListener19AccessHandleDeleterEEERNSt13tuple_elementIXT_ESt5tupleIJDpT0_EEE4typeERS8_(ptr noundef nonnull align 8 dereferenceable(16) %0) #0 comdat {
  %2 = alloca ptr, align 8
  store ptr %0, ptr %2, align 8, !tbaa !152
  %3 = load ptr, ptr %2, align 8, !tbaa !152
  %4 = call noundef nonnull align 8 dereferenceable(8) ptr @_ZSt12__get_helperILm1EN3ade21IMemoryAccessListener19AccessHandleDeleterEJEERT0_RSt11_Tuple_implIXT_EJS3_DpT1_EE(ptr noundef nonnull align 8 dereferenceable(8) %3) #13
  ret ptr %4
}

; Function Attrs: mustprogress nounwind uwtable
define linkonce_odr hidden noundef nonnull align 8 dereferenceable(8) ptr @_ZNK9__gnu_cxx17__normal_iteratorIPSt10unique_ptrIvN3ade21IMemoryAccessListener19AccessHandleDeleterEESt6vectorIS5_SaIS5_EEE4baseEv(ptr noundef nonnull align 8 dereferenceable(8) %0) #0 comdat align 2 {
  %2 = alloca ptr, align 8
  store ptr %0, ptr %2, align 8, !tbaa !106
  %3 = load ptr, ptr %2, align 8
  %4 = getelementptr inbounds nuw %"class.__gnu_cxx::__normal_iterator.21", ptr %3, i32 0, i32 0
  ret ptr %4
}

; Function Attrs: mustprogress nounwind uwtable
define linkonce_odr hidden void @_ZN9__gnu_cxx17__normal_iteratorIPSt10unique_ptrIvN3ade21IMemoryAccessListener19AccessHandleDeleterEESt6vectorIS5_SaIS5_EEEC2ERKS6_(ptr noundef nonnull align 8 dereferenceable(8) %0, ptr noundef nonnull align 8 dereferenceable(8) %1) unnamed_addr #0 comdat align 2 {
  %3 = alloca ptr, align 8
  %4 = alloca ptr, align 8
  store ptr %0, ptr %3, align 8, !tbaa !106
  store ptr %1, ptr %4, align 8, !tbaa !244
  %5 = load ptr, ptr %3, align 8
  %6 = getelementptr inbounds nuw %"class.__gnu_cxx::__normal_iterator.21", ptr %5, i32 0, i32 0
  %7 = load ptr, ptr %4, align 8, !tbaa !244
  %8 = load ptr, ptr %7, align 8, !tbaa !80
  store ptr %8, ptr %6, align 8, !tbaa !108
  ret void
}

; Function Attrs: mustprogress nounwind uwtable
define linkonce_odr hidden noundef ptr @_ZNSt15__uniq_ptr_implIvN3ade21IMemoryAccessListener19AccessHandleDeleterEE7releaseEv(ptr noundef nonnull align 8 dereferenceable(16) %0) #0 comdat align 2 {
  %2 = alloca ptr, align 8
  %3 = alloca ptr, align 8
  store ptr %0, ptr %2, align 8, !tbaa !150
  %4 = load ptr, ptr %2, align 8
  call void @llvm.lifetime.start.p0(i64 8, ptr %3) #13
  %5 = call noundef nonnull align 8 dereferenceable(8) ptr @_ZNSt15__uniq_ptr_implIvN3ade21IMemoryAccessListener19AccessHandleDeleterEE6_M_ptrEv(ptr noundef nonnull align 8 dereferenceable(16) %4) #13
  %6 = load ptr, ptr %5, align 8, !tbaa !62
  store ptr %6, ptr %3, align 8, !tbaa !62
  %7 = call noundef nonnull align 8 dereferenceable(8) ptr @_ZNSt15__uniq_ptr_implIvN3ade21IMemoryAccessListener19AccessHandleDeleterEE6_M_ptrEv(ptr noundef nonnull align 8 dereferenceable(16) %4) #13
  store ptr null, ptr %7, align 8, !tbaa !62
  %8 = load ptr, ptr %3, align 8, !tbaa !62
  call void @llvm.lifetime.end.p0(i64 8, ptr %3) #13
  ret ptr %8
}

; Function Attrs: mustprogress nounwind uwtable
define linkonce_odr hidden noundef nonnull align 8 dereferenceable(8) ptr @_ZNSt15__uniq_ptr_implIvN3ade21IMemoryAccessListener19AccessHandleDeleterEE10_M_deleterEv(ptr noundef nonnull align 8 dereferenceable(16) %0) #0 comdat align 2 {
  %2 = alloca ptr, align 8
  store ptr %0, ptr %2, align 8, !tbaa !150
  %3 = load ptr, ptr %2, align 8
  %4 = getelementptr inbounds nuw %"class.std::__uniq_ptr_impl", ptr %3, i32 0, i32 0
  %5 = call noundef nonnull align 8 dereferenceable(8) ptr @_ZSt3getILm1EJPvN3ade21IMemoryAccessListener19AccessHandleDeleterEEERNSt13tuple_elementIXT_ESt5tupleIJDpT0_EEE4typeERS8_(ptr noundef nonnull align 8 dereferenceable(16) %4) #13
  ret ptr %5
}

; Function Attrs: mustprogress nounwind uwtable
define linkonce_odr hidden noundef nonnull align 8 dereferenceable(8) ptr @_ZN9__gnu_cxx17__normal_iteratorIPSt10unique_ptrIvN3ade21IMemoryAccessListener19AccessHandleDeleterEESt6vectorIS5_SaIS5_EEEppEv(ptr noundef nonnull align 8 dereferenceable(8) %0) #0 comdat align 2 {
  %2 = alloca ptr, align 8
  store ptr %0, ptr %2, align 8, !tbaa !106
  %3 = load ptr, ptr %2, align 8
  %4 = getelementptr inbounds nuw %"class.__gnu_cxx::__normal_iterator.21", ptr %3, i32 0, i32 0
  %5 = load ptr, ptr %4, align 8, !tbaa !108
  %6 = getelementptr inbounds nuw %"class.std::unique_ptr", ptr %5, i32 1
  store ptr %6, ptr %4, align 8, !tbaa !108
  ret ptr %3
}

; Function Attrs: mustprogress nounwind uwtable
define linkonce_odr hidden noundef nonnull align 8 dereferenceable(16) ptr @_ZNK9__gnu_cxx17__normal_iteratorIPSt10unique_ptrIvN3ade21IMemoryAccessListener19AccessHandleDeleterEESt6vectorIS5_SaIS5_EEEdeEv(ptr noundef nonnull align 8 dereferenceable(8) %0) #0 comdat align 2 {
  %2 = alloca ptr, align 8
  store ptr %0, ptr %2, align 8, !tbaa !106
  %3 = load ptr, ptr %2, align 8
  %4 = getelementptr inbounds nuw %"class.__gnu_cxx::__normal_iterator.21", ptr %3, i32 0, i32 0
  %5 = load ptr, ptr %4, align 8, !tbaa !108
  ret ptr %5
}

; Function Attrs: inlinehint mustprogress nounwind uwtable
define linkonce_odr hidden noundef zeroext i1 @_ZN9__gnu_cxxneIPSt10unique_ptrIvN3ade21IMemoryAccessListener19AccessHandleDeleterEESt6vectorIS5_SaIS5_EEEEbRKNS_17__normal_iteratorIT_T0_EESF_(ptr noundef nonnull align 8 dereferenceable(8) %0, ptr noundef nonnull align 8 dereferenceable(8) %1) #4 comdat {
  %3 = alloca ptr, align 8
  %4 = alloca ptr, align 8
  store ptr %0, ptr %3, align 8, !tbaa !106
  store ptr %1, ptr %4, align 8, !tbaa !106
  %5 = load ptr, ptr %3, align 8, !tbaa !106
  %6 = call noundef nonnull align 8 dereferenceable(8) ptr @_ZNK9__gnu_cxx17__normal_iteratorIPSt10unique_ptrIvN3ade21IMemoryAccessListener19AccessHandleDeleterEESt6vectorIS5_SaIS5_EEE4baseEv(ptr noundef nonnull align 8 dereferenceable(8) %5) #13
  %7 = load ptr, ptr %6, align 8, !tbaa !80
  %8 = load ptr, ptr %4, align 8, !tbaa !106
  %9 = call noundef nonnull align 8 dereferenceable(8) ptr @_ZNK9__gnu_cxx17__normal_iteratorIPSt10unique_ptrIvN3ade21IMemoryAccessListener19AccessHandleDeleterEESt6vectorIS5_SaIS5_EEE4baseEv(ptr noundef nonnull align 8 dereferenceable(8) %8) #13
  %10 = load ptr, ptr %9, align 8, !tbaa !80
  %11 = icmp ne ptr %7, %10
  ret i1 %11
}

; Function Attrs: mustprogress nounwind uwtable
define linkonce_odr hidden ptr @_ZNSt6vectorISt10unique_ptrIvN3ade21IMemoryAccessListener19AccessHandleDeleterEESaIS4_EE3endEv(ptr noundef nonnull align 8 dereferenceable(24) %0) #0 comdat align 2 {
  %2 = alloca %"class.__gnu_cxx::__normal_iterator.21", align 8
  %3 = alloca ptr, align 8
  store ptr %0, ptr %3, align 8, !tbaa !78
  %4 = load ptr, ptr %3, align 8
  %5 = getelementptr inbounds nuw %"struct.std::_Vector_base.6", ptr %4, i32 0, i32 0
  %6 = getelementptr inbounds nuw %"struct.std::_Vector_base<std::unique_ptr<void, ade::IMemoryAccessListener::AccessHandleDeleter>, std::allocator<std::unique_ptr<void, ade::IMemoryAccessListener::AccessHandleDeleter>>>::_Vector_impl_data", ptr %5, i32 0, i32 1
  call void @_ZN9__gnu_cxx17__normal_iteratorIPSt10unique_ptrIvN3ade21IMemoryAccessListener19AccessHandleDeleterEESt6vectorIS5_SaIS5_EEEC2ERKS6_(ptr noundef nonnull align 8 dereferenceable(8) %2, ptr noundef nonnull align 8 dereferenceable(8) %6) #13
  %7 = getelementptr inbounds nuw %"class.__gnu_cxx::__normal_iterator.21", ptr %2, i32 0, i32 0
  %8 = load ptr, ptr %7, align 8
  ret ptr %8
}

; Function Attrs: mustprogress nounwind uwtable
define linkonce_odr hidden ptr @_ZNSt6vectorISt10unique_ptrIvN3ade21IMemoryAccessListener19AccessHandleDeleterEESaIS4_EE5beginEv(ptr noundef nonnull align 8 dereferenceable(24) %0) #0 comdat align 2 {
  %2 = alloca %"class.__gnu_cxx::__normal_iterator.21", align 8
  %3 = alloca ptr, align 8
  store ptr %0, ptr %3, align 8, !tbaa !78
  %4 = load ptr, ptr %3, align 8
  %5 = getelementptr inbounds nuw %"struct.std::_Vector_base.6", ptr %4, i32 0, i32 0
  %6 = getelementptr inbounds nuw %"struct.std::_Vector_base<std::unique_ptr<void, ade::IMemoryAccessListener::AccessHandleDeleter>, std::allocator<std::unique_ptr<void, ade::IMemoryAccessListener::AccessHandleDeleter>>>::_Vector_impl_data", ptr %5, i32 0, i32 0
  call void @_ZN9__gnu_cxx17__normal_iteratorIPSt10unique_ptrIvN3ade21IMemoryAccessListener19AccessHandleDeleterEESt6vectorIS5_SaIS5_EEEC2ERKS6_(ptr noundef nonnull align 8 dereferenceable(8) %2, ptr noundef nonnull align 8 dereferenceable(8) %6) #13
  %7 = getelementptr inbounds nuw %"class.__gnu_cxx::__normal_iterator.21", ptr %2, i32 0, i32 0
  %8 = load ptr, ptr %7, align 8
  ret ptr %8
}

; Function Attrs: mustprogress nounwind uwtable
define linkonce_odr hidden noundef ptr @_ZNSt10unique_ptrIvN3ade21IMemoryAccessListener19AccessHandleDeleterEE7releaseEv(ptr noundef nonnull align 8 dereferenceable(16) %0) #0 comdat align 2 {
  %2 = alloca ptr, align 8
  store ptr %0, ptr %2, align 8, !tbaa !80
  %3 = load ptr, ptr %2, align 8
  %4 = getelementptr inbounds nuw %"class.std::unique_ptr", ptr %3, i32 0, i32 0
  %5 = call noundef ptr @_ZNSt15__uniq_ptr_implIvN3ade21IMemoryAccessListener19AccessHandleDeleterEE7releaseEv(ptr noundef nonnull align 8 dereferenceable(16) %4) #13
  ret ptr %5
}

; Function Attrs: mustprogress nounwind uwtable
define linkonce_odr hidden noundef nonnull align 8 dereferenceable(8) ptr @_ZNSt10unique_ptrIvN3ade21IMemoryAccessListener19AccessHandleDeleterEE11get_deleterEv(ptr noundef nonnull align 8 dereferenceable(16) %0) #0 comdat align 2 {
  %2 = alloca ptr, align 8
  store ptr %0, ptr %2, align 8, !tbaa !80
  %3 = load ptr, ptr %2, align 8
  %4 = getelementptr inbounds nuw %"class.std::unique_ptr", ptr %3, i32 0, i32 0
  %5 = call noundef nonnull align 8 dereferenceable(8) ptr @_ZNSt15__uniq_ptr_implIvN3ade21IMemoryAccessListener19AccessHandleDeleterEE10_M_deleterEv(ptr noundef nonnull align 8 dereferenceable(16) %4) #13
  ret ptr %5
}

; Function Attrs: mustprogress nounwind uwtable
define hidden void @_ZN3ade14MemoryAccessor12SavedHandles7abandonEPNS_21IMemoryAccessListenerE(ptr noundef nonnull align 8 dereferenceable(40) %0, ptr noundef %1) #0 align 2 {
  %3 = alloca ptr, align 8
  %4 = alloca ptr, align 8
  %5 = alloca i8, align 1
  %6 = alloca ptr, align 8
  %7 = alloca %"class.__gnu_cxx::__normal_iterator.21", align 8
  %8 = alloca %"class.__gnu_cxx::__normal_iterator.21", align 8
  %9 = alloca ptr, align 8
  store ptr %0, ptr %3, align 8, !tbaa !35
  store ptr %1, ptr %4, align 8, !tbaa !26
  %10 = load ptr, ptr %3, align 8
  br label %11

11:                                               ; preds = %2
  call void @llvm.lifetime.start.p0(i64 1, ptr %5) #13
  store i8 0, ptr %5, align 1, !tbaa !24
  call void @llvm.lifetime.end.p0(i64 1, ptr %5) #13
  br label %12

12:                                               ; preds = %11
  %13 = load ptr, ptr %4, align 8, !tbaa !26
  %14 = getelementptr inbounds nuw %"struct.ade::MemoryAccessor::SavedHandles", ptr %10, i32 0, i32 0
  %15 = call noundef nonnull align 8 dereferenceable(8) ptr @_ZNSt10unique_ptrIvN3ade21IMemoryAccessListener19AccessHandleDeleterEE11get_deleterEv(ptr noundef nonnull align 8 dereferenceable(16) %14) #13
  %16 = getelementptr inbounds nuw %"struct.ade::IMemoryAccessListener::AccessHandleDeleter", ptr %15, i32 0, i32 0
  %17 = load ptr, ptr %16, align 8, !tbaa !76
  %18 = icmp eq ptr %13, %17
  br i1 %18, label %19, label %22

19:                                               ; preds = %12
  %20 = getelementptr inbounds nuw %"struct.ade::MemoryAccessor::SavedHandles", ptr %10, i32 0, i32 0
  %21 = call noundef ptr @_ZNSt10unique_ptrIvN3ade21IMemoryAccessListener19AccessHandleDeleterEE7releaseEv(ptr noundef nonnull align 8 dereferenceable(16) %20) #13
  br label %22

22:                                               ; preds = %19, %12
  call void @llvm.lifetime.start.p0(i64 8, ptr %6) #13
  %23 = getelementptr inbounds nuw %"struct.ade::MemoryAccessor::SavedHandles", ptr %10, i32 0, i32 1
  store ptr %23, ptr %6, align 8, !tbaa !78
  call void @llvm.lifetime.start.p0(i64 8, ptr %7) #13
  %24 = load ptr, ptr %6, align 8, !tbaa !78
  %25 = call ptr @_ZNSt6vectorISt10unique_ptrIvN3ade21IMemoryAccessListener19AccessHandleDeleterEESaIS4_EE5beginEv(ptr noundef nonnull align 8 dereferenceable(24) %24) #13
  %26 = getelementptr inbounds nuw %"class.__gnu_cxx::__normal_iterator.21", ptr %7, i32 0, i32 0
  store ptr %25, ptr %26, align 8
  call void @llvm.lifetime.start.p0(i64 8, ptr %8) #13
  %27 = load ptr, ptr %6, align 8, !tbaa !78
  %28 = call ptr @_ZNSt6vectorISt10unique_ptrIvN3ade21IMemoryAccessListener19AccessHandleDeleterEESaIS4_EE3endEv(ptr noundef nonnull align 8 dereferenceable(24) %27) #13
  %29 = getelementptr inbounds nuw %"class.__gnu_cxx::__normal_iterator.21", ptr %8, i32 0, i32 0
  store ptr %28, ptr %29, align 8
  br label %30

30:                                               ; preds = %45, %22
  %31 = call noundef zeroext i1 @_ZN9__gnu_cxxneIPSt10unique_ptrIvN3ade21IMemoryAccessListener19AccessHandleDeleterEESt6vectorIS5_SaIS5_EEEEbRKNS_17__normal_iteratorIT_T0_EESF_(ptr noundef nonnull align 8 dereferenceable(8) %7, ptr noundef nonnull align 8 dereferenceable(8) %8) #13
  br i1 %31, label %33, label %32

32:                                               ; preds = %30
  call void @llvm.lifetime.end.p0(i64 8, ptr %8) #13
  call void @llvm.lifetime.end.p0(i64 8, ptr %7) #13
  call void @llvm.lifetime.end.p0(i64 8, ptr %6) #13
  br label %47

33:                                               ; preds = %30
  call void @llvm.lifetime.start.p0(i64 8, ptr %9) #13
  %34 = call noundef nonnull align 8 dereferenceable(16) ptr @_ZNK9__gnu_cxx17__normal_iteratorIPSt10unique_ptrIvN3ade21IMemoryAccessListener19AccessHandleDeleterEESt6vectorIS5_SaIS5_EEEdeEv(ptr noundef nonnull align 8 dereferenceable(8) %7) #13
  store ptr %34, ptr %9, align 8, !tbaa !80
  %35 = load ptr, ptr %4, align 8, !tbaa !26
  %36 = load ptr, ptr %9, align 8, !tbaa !80
  %37 = call noundef nonnull align 8 dereferenceable(8) ptr @_ZNSt10unique_ptrIvN3ade21IMemoryAccessListener19AccessHandleDeleterEE11get_deleterEv(ptr noundef nonnull align 8 dereferenceable(16) %36) #13
  %38 = getelementptr inbounds nuw %"struct.ade::IMemoryAccessListener::AccessHandleDeleter", ptr %37, i32 0, i32 0
  %39 = load ptr, ptr %38, align 8, !tbaa !76
  %40 = icmp eq ptr %35, %39
  br i1 %40, label %41, label %44

41:                                               ; preds = %33
  %42 = load ptr, ptr %9, align 8, !tbaa !80
  %43 = call noundef ptr @_ZNSt10unique_ptrIvN3ade21IMemoryAccessListener19AccessHandleDeleterEE7releaseEv(ptr noundef nonnull align 8 dereferenceable(16) %42) #13
  br label %44

44:                                               ; preds = %41, %33
  call void @llvm.lifetime.end.p0(i64 8, ptr %9) #13
  br label %45

45:                                               ; preds = %44
  %46 = call noundef nonnull align 8 dereferenceable(8) ptr @_ZN9__gnu_cxx17__normal_iteratorIPSt10unique_ptrIvN3ade21IMemoryAccessListener19AccessHandleDeleterEESt6vectorIS5_SaIS5_EEEppEv(ptr noundef nonnull align 8 dereferenceable(8) %7) #13
  br label %30

47:                                               ; preds = %32
  ret void
}