; Function Attrs: mustprogress nofree norecurse nosync nounwind memory(readwrite, inaccessiblemem: none) uwtable
define hidden void @_ZN3ade14MemoryAccessor12SavedHandles7abandonEPNS_21IMemoryAccessListenerE(ptr noundef nonnull align 8 captures(none) dereferenceable(40) %0, ptr noundef readnone %1) local_unnamed_addr #6 align 2 {
  %3 = load ptr, ptr %0, align 8, !tbaa !33
  %4 = icmp eq ptr %1, %3
  br i1 %4, label %5, label %7

5:                                                ; preds = %2
  %6 = getelementptr inbounds nuw i8, ptr %0, i64 8
  store ptr null, ptr %6, align 8, !tbaa !16
  br label %7

7:                                                ; preds = %5, %2
  %8 = getelementptr inbounds nuw i8, ptr %0, i64 16
  %9 = load ptr, ptr %8, align 8, !tbaa !17
  %10 = getelementptr inbounds nuw i8, ptr %0, i64 24
  %11 = load ptr, ptr %10, align 8, !tbaa !17
  %.not10 = icmp eq ptr %9, %11
  br i1 %.not10, label %._crit_edge, label %.lr.ph

._crit_edge:                                      ; preds = %16, %7
  ret void

.lr.ph:                                           ; preds = %7, %16
  %.sroa.07.011 = phi ptr [ %17, %16 ], [ %9, %7 ]
  %12 = load ptr, ptr %.sroa.07.011, align 8, !tbaa !33
  %13 = icmp eq ptr %1, %12
  br i1 %13, label %14, label %16

14:                                               ; preds = %.lr.ph
  %15 = getelementptr inbounds nuw i8, ptr %.sroa.07.011, i64 8
  store ptr null, ptr %15, align 8, !tbaa !16
  br label %16

16:                                               ; preds = %14, %.lr.ph
  %17 = getelementptr inbounds nuw i8, ptr %.sroa.07.011, i64 16
  %.not = icmp eq ptr %17, %11
  br i1 %.not, label %._crit_edge, label %.lr.ph
}